(lp0
(lp1
S'Anti-Mage'
p2
aI1
aI0
aI1
aI0
aI0
aI0
aI0
aI0
aI1
aa(lp3
S'Axe'
p4
aI1
aI0
aI0
aI0
aI1
aI1
aI0
aI0
aI0
aa(lp5
S'Bane'
p6
aI0
aI0
aI0
aI1
aI0
aI0
aI0
aI0
aI0
aa(lp7
S'Bloodseeker'
p8
aI1
aI0
aI1
aI0
aI0
aI1
aI0
aI0
aI0
aa(lp9
S'Crystal Maiden'
p10
aI0
aI0
aI0
aI1
aI0
aI0
aI1
aI0
aI0
aa(lp11
S'Drow Ranger'
p12
aI1
aI0
aI1
aI0
aI0
aI0
aI0
aI0
aI0
aa(lp13
S'Earthshaker'
p14
aI0
aI0
aI0
aI1
aI0
aI0
aI1
aI0
aI0
aa(lp15
S'Juggernaut'
p16
aI1
aI0
aI1
aI0
aI0
aI0
aI0
aI1
aI0
aa(lp17
S'Mirana'
p18
aI1
aI1
aI0
aI0
aI1
aI0
aI1
aI0
aI1
aa(lp19
S'Morphling'
p20
aI1
aI1
aI1
aI0
aI0
aI0
aI0
aI1
aI1
aa(lp21
S'Shadow Fiend'
p22
aI1
aI1
aI1
aI0
aI0
aI0
aI0
aI0
aI0
aa(lp23
S'Phantom Lancer'
p24
aI1
aI0
aI1
aI0
aI0
aI0
aI0
aI1
aI1
aa(lp25
S'Puck'
p26
aI1
aI1
aI0
aI0
aI0
aI0
aI0
aI0
aI1
aa(lp27
S'Pudge'
p28
aI1
aI1
aI0
aI0
aI0
aI0
aI1
aI0
aI0
aa(lp29
S'Razor'
p30
aI1
aI1
aI1
aI0
aI0
aI0
aI0
aI0
aI0
aa(lp31
S'Sand King'
p32
aI0
aI0
aI0
aI1
aI0
aI1
aI1
aI0
aI1
aa(lp33
S'Storm Spirit'
p34
aI1
aI1
aI0
aI0
aI0
aI0
aI0
aI0
aI1
aa(lp35
S'Sven'
p36
aI1
aI0
aI1
aI0
aI0
aI0
aI0
aI0
aI0
aa(lp37
S'Tiny'
p38
aI1
aI1
aI1
aI0
aI0
aI0
aI0
aI0
aI0
aa(lp39
S'Vengeful Spirit'
p40
aI0
aI0
aI0
aI1
aI0
aI0
aI1
aI0
aI0
aa(lp41
S'Windranger'
p42
aI1
aI1
aI0
aI0
aI1
aI0
aI0
aI0
aI1
aa(lp43
S'Zeus'
p44
aI1
aI1
aI0
aI0
aI0
aI0
aI0
aI0
aI0
aa(lp45
S'Kunkka'
p46
aI1
aI1
aI1
aI0
aI0
aI0
aI0
aI0
aI0
aa(lp47
S'Lina'
p48
aI1
aI1
aI0
aI1
aI0
aI0
aI1
aI0
aI0
aa(lp49
S'Lion'
p50
aI0
aI0
aI0
aI1
aI0
aI0
aI1
aI0
aI0
aa(lp51
S'Shadow Shaman'
p52
aI0
aI0
aI0
aI1
aI0
aI0
aI1
aI1
aI0
aa(lp53
S'Slardar'
p54
aI1
aI0
aI1
aI1
aI1
aI0
aI0
aI0
aI1
aa(lp55
S'Tidehunter'
p56
aI1
aI0
aI0
aI0
aI1
aI0
aI0
aI0
aI0
aa(lp57
S'Witch Doctor'
p58
aI0
aI0
aI0
aI1
aI0
aI0
aI1
aI0
aI0
aa(lp59
S'Lich'
p60
aI0
aI0
aI0
aI1
aI0
aI0
aI0
aI0
aI0
aa(lp61
S'Riki'
p62
aI0
aI0
aI0
aI0
aI0
aI0
aI0
aI0
aI1
aa(lp63
S'Enigma'
p64
aI0
aI0
aI0
aI0
aI0
aI1
aI0
aI1
aI0
aa(lp65
S'Tinker'
p66
aI1
aI1
aI0
aI0
aI0
aI0
aI0
aI1
aI0
aa(lp67
S'Sniper'
p68
aI1
aI1
aI1
aI0
aI0
aI0
aI0
aI0
aI0
aa(lp69
S'Necrophos'
p70
aI1
aI1
aI1
aI0
aI1
aI0
aI0
aI0
aI0
aa(lp71
S'Warlock'
p72
aI0
aI0
aI0
aI1
aI0
aI0
aI0
aI1
aI0
aa(lp73
S'Beastmaster'
p74
aI1
aI0
aI0
aI0
aI1
aI0
aI0
aI0
aI0
aa(lp75
S'Queen of Pain'
p76
aI1
aI1
aI0
aI0
aI0
aI0
aI0
aI0
aI1
aa(lp77
S'Venomancer'
p78
aI0
aI0
aI0
aI1
aI0
aI0
aI0
aI1
aI0
aa(lp79
S'Faceless Void'
p80
aI1
aI0
aI1
aI0
aI1
aI0
aI0
aI0
aI1
aa(lp81
S'Wraith King'
p82
aI1
aI0
aI1
aI0
aI0
aI0
aI0
aI0
aI0
aa(lp83
S'Death Prophet'
p84
aI1
aI1
aI0
aI0
aI0
aI0
aI0
aI1
aI0
aa(lp85
S'Phantom Assassin'
p86
aI1
aI1
aI1
aI0
aI0
aI0
aI0
aI0
aI1
aa(lp87
S'Pugna'
p88
aI0
aI0
aI0
aI1
aI0
aI0
aI0
aI1
aI0
aa(lp89
S'Templar Assassin'
p90
aI1
aI1
aI0
aI0
aI0
aI0
aI0
aI0
aI1
aa(lp91
S'Viper'
p92
aI1
aI1
aI0
aI0
aI0
aI0
aI0
aI0
aI0
aa(lp93
S'Luna'
p94
aI1
aI1
aI1
aI0
aI0
aI0
aI0
aI0
aI0
aa(lp95
S'Dragon Knight'
p96
aI1
aI1
aI1
aI0
aI0
aI0
aI0
aI1
aI0
aa(lp97
S'Dazzle'
p98
aI0
aI0
aI0
aI1
aI0
aI0
aI0
aI0
aI0
aa(lp99
S'Clockwerk'
p100
aI1
aI0
aI0
aI0
aI1
aI0
aI0
aI0
aI0
aa(lp101
S'Leshrac'
p102
aI1
aI1
aI0
aI0
aI0
aI0
aI0
aI1
aI0
aa(lp103
S"Nature's Prophet"
p104
aI1
aI0
aI0
aI0
aI0
aI1
aI0
aI1
aI1
aa(lp105
S'Lifestealer'
p106
aI1
aI0
aI1
aI0
aI0
aI1
aI0
aI0
aI0
aa(lp107
S'Dark Seer'
p108
aI1
aI0
aI0
aI0
aI1
aI0
aI0
aI1
aI0
aa(lp109
S'Clinkz'
p110
aI1
aI1
aI1
aI0
aI1
aI0
aI0
aI1
aI1
aa(lp111
S'Omniknight'
p112
aI0
aI0
aI0
aI1
aI0
aI0
aI0
aI0
aI0
aa(lp113
S'Enchantress'
p114
aI1
aI0
aI0
aI0
aI1
aI1
aI1
aI1
aI0
aa(lp115
S'Huskar'
p116
aI1
aI1
aI1
aI0
aI0
aI0
aI0
aI0
aI0
aa(lp117
S'Night Stalker'
p118
aI1
aI0
aI0
aI0
aI1
aI0
aI0
aI0
aI0
aa(lp119
S'Broodmother'
p120
aI1
aI1
aI1
aI0
aI1
aI0
aI0
aI1
aI1
aa(lp121
S'Bounty Hunter'
p122
aI0
aI0
aI0
aI0
aI0
aI0
aI1
aI0
aI1
aa(lp123
S'Weaver'
p124
aI1
aI0
aI1
aI0
aI1
aI0
aI0
aI0
aI1
aa(lp125
S'Jakiro'
p126
aI0
aI0
aI0
aI1
aI0
aI0
aI0
aI1
aI0
aa(lp127
S'Batrider'
p128
aI1
aI1
aI0
aI0
aI1
aI0
aI0
aI0
aI1
aa(lp129
S'Chen'
p130
aI0
aI0
aI0
aI0
aI0
aI1
aI0
aI1
aI0
aa(lp131
S'Spectre'
p132
aI1
aI0
aI1
aI0
aI0
aI0
aI0
aI0
aI1
aa(lp133
S'Ancient Apparition'
p134
aI0
aI0
aI0
aI1
aI0
aI0
aI0
aI0
aI0
aa(lp135
S'Doom'
p136
aI1
aI0
aI0
aI0
aI1
aI1
aI0
aI0
aI0
aa(lp137
S'Ursa'
p138
aI1
aI0
aI1
aI0
aI0
aI1
aI0
aI0
aI0
aa(lp139
S'Spirit Breaker'
p140
aI1
aI0
aI0
aI0
aI1
aI0
aI1
aI0
aI1
aa(lp141
S'Gyrocopter'
p142
aI1
aI0
aI1
aI0
aI0
aI0
aI0
aI0
aI0
aa(lp143
S'Alchemist'
p144
aI1
aI1
aI1
aI0
aI0
aI0
aI0
aI0
aI0
aa(lp145
S'Invoker'
p146
aI1
aI1
aI0
aI0
aI0
aI0
aI0
aI0
aI1
aa(lp147
S'Silencer'
p148
aI1
aI1
aI1
aI1
aI0
aI0
aI0
aI0
aI0
aa(lp149
S'Outworld Devourer'
p150
aI1
aI1
aI0
aI0
aI0
aI0
aI0
aI0
aI0
aa(lp151
S'Lycan'
p152
aI1
aI0
aI1
aI0
aI0
aI1
aI0
aI1
aI1
aa(lp153
S'Brewmaster'
p154
aI1
aI1
aI0
aI0
aI0
aI0
aI0
aI0
aI1
aa(lp155
S'Shadow Demon'
p156
aI0
aI0
aI0
aI1
aI0
aI0
aI0
aI0
aI0
aa(lp157
S'Lone Druid'
p158
aI1
aI0
aI0
aI0
aI1
aI1
aI0
aI1
aI0
aa(lp159
S'Chaos Knight'
p160
aI1
aI0
aI1
aI0
aI0
aI0
aI0
aI1
aI0
aa(lp161
S'Meepo'
p162
aI1
aI1
aI0
aI0
aI0
aI0
aI0
aI1
aI1
aa(lp163
S'Treant Protector'
p164
aI0
aI0
aI0
aI1
aI0
aI0
aI0
aI0
aI0
aa(lp165
S'Ogre Magi'
p166
aI0
aI0
aI0
aI1
aI0
aI0
aI1
aI0
aI0
aa(lp167
S'Undying'
p168
aI0
aI0
aI0
aI1
aI0
aI0
aI0
aI0
aI0
aa(lp169
S'Rubick'
p170
aI0
aI0
aI0
aI1
aI0
aI0
aI1
aI0
aI0
aa(lp171
S'Disruptor'
p172
aI0
aI0
aI0
aI1
aI0
aI0
aI1
aI0
aI0
aa(lp173
S'Nyx Assassin'
p174
aI1
aI0
aI0
aI0
aI1
aI0
aI0
aI0
aI1
aa(lp175
S'Naga Siren'
p176
aI1
aI0
aI1
aI0
aI0
aI0
aI0
aI1
aI1
aa(lp177
S'Keeper of the Light'
p178
aI0
aI0
aI0
aI1
aI0
aI0
aI1
aI0
aI0
aa(lp179
S'Io'
p180
aI0
aI0
aI0
aI1
aI0
aI0
aI1
aI0
aI0
aa(lp181
S'Visage'
p182
aI0
aI0
aI0
aI1
aI0
aI0
aI1
aI1
aI0
aa(lp183
S'Slark'
p184
aI1
aI0
aI1
aI0
aI0
aI0
aI0
aI0
aI1
aa(lp185
S'Medusa'
p186
aI1
aI1
aI1
aI0
aI0
aI0
aI0
aI0
aI0
aa(lp187
S'Troll Warlord'
p188
aI1
aI0
aI1
aI0
aI0
aI0
aI0
aI1
aI0
aa(lp189
S'Centaur Warrunner'
p190
aI1
aI0
aI0
aI0
aI1
aI0
aI0
aI0
aI1
aa(lp191
S'Magnus'
p192
aI1
aI1
aI0
aI0
aI0
aI0
aI0
aI0
aI1
aa(lp193
S'Timbersaw'
p194
aI1
aI0
aI0
aI0
aI1
aI0
aI0
aI0
aI1
aa(lp195
S'Bristleback'
p196
aI1
aI0
aI1
aI0
aI1
aI0
aI0
aI0
aI0
aa(lp197
S'Tusk'
p198
aI1
aI0
aI0
aI0
aI0
aI0
aI1
aI0
aI0
aa(lp199
S'Skywrath Mage'
p200
aI0
aI0
aI0
aI1
aI0
aI0
aI0
aI0
aI0
aa(lp201
S'Abaddon'
p202
aI1
aI0
aI0
aI1
aI1
aI0
aI0
aI0
aI1
aa(lp203
S'Elder Titan'
p204
aI1
aI0
aI0
aI0
aI1
aI0
aI0
aI0
aI0
aa(lp205
S'Legion Commander'
p206
aI1
aI0
aI1
aI0
aI1
aI1
aI0
aI0
aI0
aa(lp207
S'Techies'
p208
aI0
aI0
aI0
aI0
aI0
aI0
aI1
aI0
aI0
aa(lp209
S'Ember Spirit'
p210
aI1
aI1
aI0
aI0
aI0
aI0
aI0
aI0
aI1
aa(lp211
S'Earth Spirit'
p212
aI0
aI0
aI0
aI1
aI0
aI0
aI1
aI0
aI1
aa(lp213
S'Underlord'
p214
aI1
aI0
aI0
aI0
aI1
aI0
aI0
aI1
aI1
aa(lp215
S'Terrorblade'
p216
aI1
aI0
aI1
aI0
aI0
aI0
aI0
aI1
aI0
aa(lp217
S'Phoenix'
p218
aI1
aI0
aI0
aI1
aI1
aI0
aI0
aI0
aI0
aa(lp219
S'Oracle'
p220
aI0
aI0
aI0
aI1
aI0
aI0
aI0
aI0
aI0
aa(lp221
S'Winter Wyvern'
p222
aI0
aI0
aI0
aI1
aI0
aI0
aI0
aI0
aI0
aa(lp223
S'Arc Warden'
p224
aI1
aI1
aI0
aI0
aI0
aI0
aI0
aI0
aI1
aa(lp225
S'Monkey King'
p226
aI1
aI1
aI1
aI0
aI0
aI0
aI0
aI0
aI1
aa.