(lp0
(dp1
Vattack_type
p2
VMelee
p3
sVname
p4
VAnti-Mage
p5
sVroles
p6
(lp7
VCarry
p8
aVEscape
p9
aVNuker
p10
asVprimary_attr
p11
Vagi
p12
sVid
p13
I1
sa(dp14
Vattack_type
p15
VMelee
p16
sVname
p17
VAxe
p18
sVroles
p19
(lp20
VInitiator
p21
aVDurable
p22
aVDisabler
p23
aVJungler
p24
asVprimary_attr
p25
Vstr
p26
sVid
p27
I2
sa(dp28
Vattack_type
p29
VRanged
p30
sVname
p31
VBane
p32
sVroles
p33
(lp34
VSupport
p35
aVDisabler
p36
aVNuker
p37
aVDurable
p38
asVprimary_attr
p39
Vint
p40
sVid
p41
I3
sa(dp42
Vattack_type
p43
VMelee
p44
sVname
p45
VBloodseeker
p46
sVroles
p47
(lp48
VCarry
p49
aVDisabler
p50
aVJungler
p51
aVNuker
p52
aVInitiator
p53
asVprimary_attr
p54
Vagi
p55
sVid
p56
I4
sa(dp57
Vattack_type
p58
VRanged
p59
sVname
p60
VCrystal Maiden
p61
sVroles
p62
(lp63
VSupport
p64
aVDisabler
p65
aVNuker
p66
aVJungler
p67
asVprimary_attr
p68
Vint
p69
sVid
p70
I5
sa(dp71
Vattack_type
p72
VRanged
p73
sVname
p74
VDrow Ranger
p75
sVroles
p76
(lp77
VCarry
p78
aVDisabler
p79
aVPusher
p80
asVprimary_attr
p81
Vagi
p82
sVid
p83
I6
sa(dp84
Vattack_type
p85
VMelee
p86
sVname
p87
VEarthshaker
p88
sVroles
p89
(lp90
VSupport
p91
aVInitiator
p92
aVDisabler
p93
aVNuker
p94
asVprimary_attr
p95
Vstr
p96
sVid
p97
I7
sa(dp98
Vattack_type
p99
VMelee
p100
sVname
p101
VJuggernaut
p102
sVroles
p103
(lp104
VCarry
p105
aVPusher
p106
aVEscape
p107
asVprimary_attr
p108
Vagi
p109
sVid
p110
I8
sa(dp111
Vattack_type
p112
VRanged
p113
sVname
p114
VMirana
p115
sVroles
p116
(lp117
VCarry
p118
aVSupport
p119
aVEscape
p120
aVNuker
p121
aVDisabler
p122
asVprimary_attr
p123
Vagi
p124
sVid
p125
I9
sa(dp126
Vattack_type
p127
VRanged
p128
sVname
p129
VMorphling
p130
sVroles
p131
(lp132
VCarry
p133
aVEscape
p134
aVDurable
p135
aVNuker
p136
aVDisabler
p137
asVprimary_attr
p138
Vagi
p139
sVid
p140
I10
sa(dp141
Vattack_type
p142
VRanged
p143
sVname
p144
VShadow Fiend
p145
sVroles
p146
(lp147
VCarry
p148
aVNuker
p149
asVprimary_attr
p150
Vagi
p151
sVid
p152
I11
sa(dp153
Vattack_type
p154
VMelee
p155
sVname
p156
VPhantom Lancer
p157
sVroles
p158
(lp159
VCarry
p160
aVEscape
p161
aVPusher
p162
aVNuker
p163
asVprimary_attr
p164
Vagi
p165
sVid
p166
I12
sa(dp167
Vattack_type
p168
VRanged
p169
sVname
p170
VPuck
p171
sVroles
p172
(lp173
VInitiator
p174
aVDisabler
p175
aVEscape
p176
aVNuker
p177
asVprimary_attr
p178
Vint
p179
sVid
p180
I13
sa(dp181
Vattack_type
p182
VMelee
p183
sVname
p184
VPudge
p185
sVroles
p186
(lp187
VDisabler
p188
aVInitiator
p189
aVDurable
p190
aVNuker
p191
asVprimary_attr
p192
Vstr
p193
sVid
p194
I14
sa(dp195
Vattack_type
p196
VRanged
p197
sVname
p198
VRazor
p199
sVroles
p200
(lp201
VCarry
p202
aVDurable
p203
aVNuker
p204
aVPusher
p205
asVprimary_attr
p206
Vagi
p207
sVid
p208
I15
sa(dp209
Vattack_type
p210
VMelee
p211
sVname
p212
VSand King
p213
sVroles
p214
(lp215
VInitiator
p216
aVDisabler
p217
aVNuker
p218
aVEscape
p219
aVJungler
p220
asVprimary_attr
p221
Vstr
p222
sVid
p223
I16
sa(dp224
Vattack_type
p225
VRanged
p226
sVname
p227
VStorm Spirit
p228
sVroles
p229
(lp230
VCarry
p231
aVEscape
p232
aVNuker
p233
aVInitiator
p234
aVDisabler
p235
asVprimary_attr
p236
Vint
p237
sVid
p238
I17
sa(dp239
Vattack_type
p240
VMelee
p241
sVname
p242
VSven
p243
sVroles
p244
(lp245
VCarry
p246
aVDisabler
p247
aVInitiator
p248
aVDurable
p249
aVNuker
p250
asVprimary_attr
p251
Vstr
p252
sVid
p253
I18
sa(dp254
Vattack_type
p255
VMelee
p256
sVname
p257
VTiny
p258
sVroles
p259
(lp260
VCarry
p261
aVNuker
p262
aVPusher
p263
aVInitiator
p264
aVDurable
p265
aVDisabler
p266
asVprimary_attr
p267
Vstr
p268
sVid
p269
I19
sa(dp270
Vattack_type
p271
VRanged
p272
sVname
p273
VVengeful Spirit
p274
sVroles
p275
(lp276
VSupport
p277
aVInitiator
p278
aVDisabler
p279
aVNuker
p280
aVEscape
p281
asVprimary_attr
p282
Vagi
p283
sVid
p284
I20
sa(dp285
Vattack_type
p286
VRanged
p287
sVname
p288
VWindranger
p289
sVroles
p290
(lp291
VCarry
p292
aVSupport
p293
aVDisabler
p294
aVEscape
p295
aVNuker
p296
asVprimary_attr
p297
Vint
p298
sVid
p299
I21
sa(dp300
Vattack_type
p301
VRanged
p302
sVname
p303
VZeus
p304
sVroles
p305
(lp306
VNuker
p307
asVprimary_attr
p308
Vint
p309
sVid
p310
I22
sa(dp311
Vattack_type
p312
VMelee
p313
sVname
p314
VKunkka
p315
sVroles
p316
(lp317
VCarry
p318
aVDisabler
p319
aVInitiator
p320
aVDurable
p321
aVNuker
p322
asVprimary_attr
p323
Vstr
p324
sVid
p325
I23
sa(dp326
Vattack_type
p327
VRanged
p328
sVname
p329
VLina
p330
sVroles
p331
(lp332
VSupport
p333
aVCarry
p334
aVNuker
p335
aVDisabler
p336
asVprimary_attr
p337
Vint
p338
sVid
p339
I25
sa(dp340
Vattack_type
p341
VRanged
p342
sVname
p343
VLion
p344
sVroles
p345
(lp346
VSupport
p347
aVDisabler
p348
aVNuker
p349
aVInitiator
p350
asVprimary_attr
p351
Vint
p352
sVid
p353
I26
sa(dp354
Vattack_type
p355
VRanged
p356
sVname
p357
VShadow Shaman
p358
sVroles
p359
(lp360
VSupport
p361
aVPusher
p362
aVDisabler
p363
aVNuker
p364
aVInitiator
p365
asVprimary_attr
p366
Vint
p367
sVid
p368
I27
sa(dp369
Vattack_type
p370
VMelee
p371
sVname
p372
VSlardar
p373
sVroles
p374
(lp375
VCarry
p376
aVDurable
p377
aVInitiator
p378
aVDisabler
p379
aVEscape
p380
asVprimary_attr
p381
Vstr
p382
sVid
p383
I28
sa(dp384
Vattack_type
p385
VMelee
p386
sVname
p387
VTidehunter
p388
sVroles
p389
(lp390
VInitiator
p391
aVDurable
p392
aVDisabler
p393
aVNuker
p394
asVprimary_attr
p395
Vstr
p396
sVid
p397
I29
sa(dp398
Vattack_type
p399
VRanged
p400
sVname
p401
VWitch Doctor
p402
sVroles
p403
(lp404
VSupport
p405
aVNuker
p406
aVDisabler
p407
asVprimary_attr
p408
Vint
p409
sVid
p410
I30
sa(dp411
Vattack_type
p412
VRanged
p413
sVname
p414
VLich
p415
sVroles
p416
(lp417
VSupport
p418
aVNuker
p419
asVprimary_attr
p420
Vint
p421
sVid
p422
I31
sa(dp423
Vattack_type
p424
VMelee
p425
sVname
p426
VRiki
p427
sVroles
p428
(lp429
VCarry
p430
aVEscape
p431
aVDisabler
p432
asVprimary_attr
p433
Vagi
p434
sVid
p435
I32
sa(dp436
Vattack_type
p437
VRanged
p438
sVname
p439
VEnigma
p440
sVroles
p441
(lp442
VDisabler
p443
aVJungler
p444
aVInitiator
p445
aVPusher
p446
asVprimary_attr
p447
Vint
p448
sVid
p449
I33
sa(dp450
Vattack_type
p451
VRanged
p452
sVname
p453
VTinker
p454
sVroles
p455
(lp456
VCarry
p457
aVNuker
p458
aVPusher
p459
asVprimary_attr
p460
Vint
p461
sVid
p462
I34
sa(dp463
Vattack_type
p464
VRanged
p465
sVname
p466
VSniper
p467
sVroles
p468
(lp469
VCarry
p470
aVNuker
p471
asVprimary_attr
p472
Vagi
p473
sVid
p474
I35
sa(dp475
Vattack_type
p476
VRanged
p477
sVname
p478
VNecrophos
p479
sVroles
p480
(lp481
VCarry
p482
aVNuker
p483
aVDurable
p484
aVDisabler
p485
asVprimary_attr
p486
Vint
p487
sVid
p488
I36
sa(dp489
Vattack_type
p490
VRanged
p491
sVname
p492
VWarlock
p493
sVroles
p494
(lp495
VSupport
p496
aVInitiator
p497
aVDisabler
p498
asVprimary_attr
p499
Vint
p500
sVid
p501
I37
sa(dp502
Vattack_type
p503
VMelee
p504
sVname
p505
VBeastmaster
p506
sVroles
p507
(lp508
VInitiator
p509
aVDisabler
p510
aVDurable
p511
aVNuker
p512
asVprimary_attr
p513
Vstr
p514
sVid
p515
I38
sa(dp516
Vattack_type
p517
VRanged
p518
sVname
p519
VQueen of Pain
p520
sVroles
p521
(lp522
VCarry
p523
aVNuker
p524
aVEscape
p525
asVprimary_attr
p526
Vint
p527
sVid
p528
I39
sa(dp529
Vattack_type
p530
VRanged
p531
sVname
p532
VVenomancer
p533
sVroles
p534
(lp535
VSupport
p536
aVNuker
p537
aVInitiator
p538
aVPusher
p539
aVDisabler
p540
asVprimary_attr
p541
Vagi
p542
sVid
p543
I40
sa(dp544
Vattack_type
p545
VMelee
p546
sVname
p547
VFaceless Void
p548
sVroles
p549
(lp550
VCarry
p551
aVInitiator
p552
aVDisabler
p553
aVEscape
p554
aVDurable
p555
asVprimary_attr
p556
Vagi
p557
sVid
p558
I41
sa(dp559
Vattack_type
p560
VMelee
p561
sVname
p562
VWraith King
p563
sVroles
p564
(lp565
VCarry
p566
aVSupport
p567
aVDurable
p568
aVDisabler
p569
aVInitiator
p570
asVprimary_attr
p571
Vstr
p572
sVid
p573
I42
sa(dp574
Vattack_type
p575
VRanged
p576
sVname
p577
VDeath Prophet
p578
sVroles
p579
(lp580
VCarry
p581
aVPusher
p582
aVNuker
p583
aVDisabler
p584
asVprimary_attr
p585
Vint
p586
sVid
p587
I43
sa(dp588
Vattack_type
p589
VMelee
p590
sVname
p591
VPhantom Assassin
p592
sVroles
p593
(lp594
VCarry
p595
aVEscape
p596
asVprimary_attr
p597
Vagi
p598
sVid
p599
I44
sa(dp600
Vattack_type
p601
VRanged
p602
sVname
p603
VPugna
p604
sVroles
p605
(lp606
VNuker
p607
aVPusher
p608
asVprimary_attr
p609
Vint
p610
sVid
p611
I45
sa(dp612
Vattack_type
p613
VRanged
p614
sVname
p615
VTemplar Assassin
p616
sVroles
p617
(lp618
VCarry
p619
aVEscape
p620
asVprimary_attr
p621
Vagi
p622
sVid
p623
I46
sa(dp624
Vattack_type
p625
VRanged
p626
sVname
p627
VViper
p628
sVroles
p629
(lp630
VCarry
p631
aVDurable
p632
aVInitiator
p633
aVDisabler
p634
asVprimary_attr
p635
Vagi
p636
sVid
p637
I47
sa(dp638
Vattack_type
p639
VRanged
p640
sVname
p641
VLuna
p642
sVroles
p643
(lp644
VCarry
p645
aVNuker
p646
aVPusher
p647
asVprimary_attr
p648
Vagi
p649
sVid
p650
I48
sa(dp651
Vattack_type
p652
VMelee
p653
sVname
p654
VDragon Knight
p655
sVroles
p656
(lp657
VCarry
p658
aVPusher
p659
aVDurable
p660
aVDisabler
p661
aVInitiator
p662
aVNuker
p663
asVprimary_attr
p664
Vstr
p665
sVid
p666
I49
sa(dp667
Vattack_type
p668
VRanged
p669
sVname
p670
VDazzle
p671
sVroles
p672
(lp673
VSupport
p674
aVNuker
p675
aVDisabler
p676
asVprimary_attr
p677
Vint
p678
sVid
p679
I50
sa(dp680
Vattack_type
p681
VMelee
p682
sVname
p683
VClockwerk
p684
sVroles
p685
(lp686
VInitiator
p687
aVDisabler
p688
aVDurable
p689
aVNuker
p690
asVprimary_attr
p691
Vstr
p692
sVid
p693
I51
sa(dp694
Vattack_type
p695
VRanged
p696
sVname
p697
VLeshrac
p698
sVroles
p699
(lp700
VCarry
p701
aVSupport
p702
aVNuker
p703
aVPusher
p704
aVDisabler
p705
asVprimary_attr
p706
Vint
p707
sVid
p708
I52
sa(dp709
Vattack_type
p710
VRanged
p711
sVname
p712
VNature's Prophet
p713
sVroles
p714
(lp715
VCarry
p716
aVJungler
p717
aVPusher
p718
aVEscape
p719
aVNuker
p720
asVprimary_attr
p721
Vint
p722
sVid
p723
I53
sa(dp724
Vattack_type
p725
VMelee
p726
sVname
p727
VLifestealer
p728
sVroles
p729
(lp730
VCarry
p731
aVDurable
p732
aVJungler
p733
aVEscape
p734
aVDisabler
p735
asVprimary_attr
p736
Vstr
p737
sVid
p738
I54
sa(dp739
Vattack_type
p740
VMelee
p741
sVname
p742
VDark Seer
p743
sVroles
p744
(lp745
VInitiator
p746
aVJungler
p747
aVEscape
p748
aVDisabler
p749
asVprimary_attr
p750
Vint
p751
sVid
p752
I55
sa(dp753
Vattack_type
p754
VRanged
p755
sVname
p756
VClinkz
p757
sVroles
p758
(lp759
VCarry
p760
aVEscape
p761
aVPusher
p762
asVprimary_attr
p763
Vagi
p764
sVid
p765
I56
sa(dp766
Vattack_type
p767
VMelee
p768
sVname
p769
VOmniknight
p770
sVroles
p771
(lp772
VSupport
p773
aVDurable
p774
aVNuker
p775
asVprimary_attr
p776
Vstr
p777
sVid
p778
I57
sa(dp779
Vattack_type
p780
VRanged
p781
sVname
p782
VEnchantress
p783
sVroles
p784
(lp785
VSupport
p786
aVJungler
p787
aVPusher
p788
aVDurable
p789
aVDisabler
p790
asVprimary_attr
p791
Vint
p792
sVid
p793
I58
sa(dp794
Vattack_type
p795
VRanged
p796
sVname
p797
VHuskar
p798
sVroles
p799
(lp800
VCarry
p801
aVDurable
p802
aVInitiator
p803
asVprimary_attr
p804
Vstr
p805
sVid
p806
I59
sa(dp807
Vattack_type
p808
VMelee
p809
sVname
p810
VNight Stalker
p811
sVroles
p812
(lp813
VCarry
p814
aVInitiator
p815
aVDurable
p816
aVDisabler
p817
aVNuker
p818
asVprimary_attr
p819
Vstr
p820
sVid
p821
I60
sa(dp822
Vattack_type
p823
VMelee
p824
sVname
p825
VBroodmother
p826
sVroles
p827
(lp828
VCarry
p829
aVPusher
p830
aVEscape
p831
aVNuker
p832
asVprimary_attr
p833
Vagi
p834
sVid
p835
I61
sa(dp836
Vattack_type
p837
VMelee
p838
sVname
p839
VBounty Hunter
p840
sVroles
p841
(lp842
VEscape
p843
aVNuker
p844
asVprimary_attr
p845
Vagi
p846
sVid
p847
I62
sa(dp848
Vattack_type
p849
VRanged
p850
sVname
p851
VWeaver
p852
sVroles
p853
(lp854
VCarry
p855
aVEscape
p856
asVprimary_attr
p857
Vagi
p858
sVid
p859
I63
sa(dp860
Vattack_type
p861
VRanged
p862
sVname
p863
VJakiro
p864
sVroles
p865
(lp866
VSupport
p867
aVNuker
p868
aVPusher
p869
aVDisabler
p870
asVprimary_attr
p871
Vint
p872
sVid
p873
I64
sa(dp874
Vattack_type
p875
VRanged
p876
sVname
p877
VBatrider
p878
sVroles
p879
(lp880
VInitiator
p881
aVJungler
p882
aVDisabler
p883
aVEscape
p884
asVprimary_attr
p885
Vint
p886
sVid
p887
I65
sa(dp888
Vattack_type
p889
VRanged
p890
sVname
p891
VChen
p892
sVroles
p893
(lp894
VSupport
p895
aVJungler
p896
aVPusher
p897
asVprimary_attr
p898
Vint
p899
sVid
p900
I66
sa(dp901
Vattack_type
p902
VMelee
p903
sVname
p904
VSpectre
p905
sVroles
p906
(lp907
VCarry
p908
aVDurable
p909
aVEscape
p910
asVprimary_attr
p911
Vagi
p912
sVid
p913
I67
sa(dp914
Vattack_type
p915
VRanged
p916
sVname
p917
VAncient Apparition
p918
sVroles
p919
(lp920
VSupport
p921
aVDisabler
p922
aVNuker
p923
asVprimary_attr
p924
Vint
p925
sVid
p926
I68
sa(dp927
Vattack_type
p928
VMelee
p929
sVname
p930
VDoom
p931
sVroles
p932
(lp933
VCarry
p934
aVDisabler
p935
aVInitiator
p936
aVDurable
p937
aVNuker
p938
asVprimary_attr
p939
Vstr
p940
sVid
p941
I69
sa(dp942
Vattack_type
p943
VMelee
p944
sVname
p945
VUrsa
p946
sVroles
p947
(lp948
VCarry
p949
aVJungler
p950
aVDurable
p951
aVDisabler
p952
asVprimary_attr
p953
Vagi
p954
sVid
p955
I70
sa(dp956
Vattack_type
p957
VMelee
p958
sVname
p959
VSpirit Breaker
p960
sVroles
p961
(lp962
VCarry
p963
aVInitiator
p964
aVDisabler
p965
aVDurable
p966
aVEscape
p967
asVprimary_attr
p968
Vstr
p969
sVid
p970
I71
sa(dp971
Vattack_type
p972
VRanged
p973
sVname
p974
VGyrocopter
p975
sVroles
p976
(lp977
VCarry
p978
aVNuker
p979
aVDisabler
p980
asVprimary_attr
p981
Vagi
p982
sVid
p983
I72
sa(dp984
Vattack_type
p985
VMelee
p986
sVname
p987
VAlchemist
p988
sVroles
p989
(lp990
VCarry
p991
aVSupport
p992
aVDurable
p993
aVDisabler
p994
aVInitiator
p995
aVNuker
p996
asVprimary_attr
p997
Vstr
p998
sVid
p999
I73
sa(dp1000
Vattack_type
p1001
VRanged
p1002
sVname
p1003
VInvoker
p1004
sVroles
p1005
(lp1006
VCarry
p1007
aVNuker
p1008
aVDisabler
p1009
aVEscape
p1010
aVPusher
p1011
asVprimary_attr
p1012
Vint
p1013
sVid
p1014
I74
sa(dp1015
Vattack_type
p1016
VRanged
p1017
sVname
p1018
VSilencer
p1019
sVroles
p1020
(lp1021
VCarry
p1022
aVSupport
p1023
aVDisabler
p1024
aVInitiator
p1025
aVNuker
p1026
asVprimary_attr
p1027
Vint
p1028
sVid
p1029
I75
sa(dp1030
Vattack_type
p1031
VRanged
p1032
sVname
p1033
VOutworld Devourer
p1034
sVroles
p1035
(lp1036
VCarry
p1037
aVNuker
p1038
aVDisabler
p1039
asVprimary_attr
p1040
Vint
p1041
sVid
p1042
I76
sa(dp1043
Vattack_type
p1044
VMelee
p1045
sVname
p1046
VLycan
p1047
sVroles
p1048
(lp1049
VCarry
p1050
aVPusher
p1051
aVJungler
p1052
aVDurable
p1053
aVEscape
p1054
asVprimary_attr
p1055
Vstr
p1056
sVid
p1057
I77
sa(dp1058
Vattack_type
p1059
VMelee
p1060
sVname
p1061
VBrewmaster
p1062
sVroles
p1063
(lp1064
VCarry
p1065
aVInitiator
p1066
aVDurable
p1067
aVDisabler
p1068
aVNuker
p1069
asVprimary_attr
p1070
Vstr
p1071
sVid
p1072
I78
sa(dp1073
Vattack_type
p1074
VRanged
p1075
sVname
p1076
VShadow Demon
p1077
sVroles
p1078
(lp1079
VSupport
p1080
aVDisabler
p1081
aVInitiator
p1082
aVNuker
p1083
asVprimary_attr
p1084
Vint
p1085
sVid
p1086
I79
sa(dp1087
Vattack_type
p1088
VRanged
p1089
sVname
p1090
VLone Druid
p1091
sVroles
p1092
(lp1093
VCarry
p1094
aVPusher
p1095
aVJungler
p1096
aVDurable
p1097
asVprimary_attr
p1098
Vagi
p1099
sVid
p1100
I80
sa(dp1101
Vattack_type
p1102
VMelee
p1103
sVname
p1104
VChaos Knight
p1105
sVroles
p1106
(lp1107
VCarry
p1108
aVDisabler
p1109
aVDurable
p1110
aVPusher
p1111
aVInitiator
p1112
asVprimary_attr
p1113
Vstr
p1114
sVid
p1115
I81
sa(dp1116
Vattack_type
p1117
VMelee
p1118
sVname
p1119
VMeepo
p1120
sVroles
p1121
(lp1122
VCarry
p1123
aVEscape
p1124
aVNuker
p1125
aVDisabler
p1126
aVInitiator
p1127
aVPusher
p1128
asVprimary_attr
p1129
Vagi
p1130
sVid
p1131
I82
sa(dp1132
Vattack_type
p1133
VMelee
p1134
sVname
p1135
VTreant Protector
p1136
sVroles
p1137
(lp1138
VSupport
p1139
aVInitiator
p1140
aVDurable
p1141
aVDisabler
p1142
aVEscape
p1143
asVprimary_attr
p1144
Vstr
p1145
sVid
p1146
I83
sa(dp1147
Vattack_type
p1148
VMelee
p1149
sVname
p1150
VOgre Magi
p1151
sVroles
p1152
(lp1153
VSupport
p1154
aVNuker
p1155
aVDisabler
p1156
aVDurable
p1157
aVInitiator
p1158
asVprimary_attr
p1159
Vint
p1160
sVid
p1161
I84
sa(dp1162
Vattack_type
p1163
VMelee
p1164
sVname
p1165
VUndying
p1166
sVroles
p1167
(lp1168
VSupport
p1169
aVDurable
p1170
aVDisabler
p1171
aVNuker
p1172
asVprimary_attr
p1173
Vstr
p1174
sVid
p1175
I85
sa(dp1176
Vattack_type
p1177
VRanged
p1178
sVname
p1179
VRubick
p1180
sVroles
p1181
(lp1182
VSupport
p1183
aVDisabler
p1184
aVNuker
p1185
asVprimary_attr
p1186
Vint
p1187
sVid
p1188
I86
sa(dp1189
Vattack_type
p1190
VRanged
p1191
sVname
p1192
VDisruptor
p1193
sVroles
p1194
(lp1195
VSupport
p1196
aVDisabler
p1197
aVNuker
p1198
aVInitiator
p1199
asVprimary_attr
p1200
Vint
p1201
sVid
p1202
I87
sa(dp1203
Vattack_type
p1204
VMelee
p1205
sVname
p1206
VNyx Assassin
p1207
sVroles
p1208
(lp1209
VDisabler
p1210
aVNuker
p1211
aVInitiator
p1212
aVEscape
p1213
asVprimary_attr
p1214
Vagi
p1215
sVid
p1216
I88
sa(dp1217
Vattack_type
p1218
VMelee
p1219
sVname
p1220
VNaga Siren
p1221
sVroles
p1222
(lp1223
VCarry
p1224
aVSupport
p1225
aVPusher
p1226
aVDisabler
p1227
aVInitiator
p1228
aVEscape
p1229
asVprimary_attr
p1230
Vagi
p1231
sVid
p1232
I89
sa(dp1233
Vattack_type
p1234
VRanged
p1235
sVname
p1236
VKeeper of the Light
p1237
sVroles
p1238
(lp1239
VSupport
p1240
aVNuker
p1241
aVDisabler
p1242
aVJungler
p1243
asVprimary_attr
p1244
Vint
p1245
sVid
p1246
I90
sa(dp1247
Vattack_type
p1248
VRanged
p1249
sVname
p1250
VIo
p1251
sVroles
p1252
(lp1253
VSupport
p1254
aVEscape
p1255
aVNuker
p1256
asVprimary_attr
p1257
Vstr
p1258
sVid
p1259
I91
sa(dp1260
Vattack_type
p1261
VRanged
p1262
sVname
p1263
VVisage
p1264
sVroles
p1265
(lp1266
VSupport
p1267
aVNuker
p1268
aVDurable
p1269
aVDisabler
p1270
aVPusher
p1271
asVprimary_attr
p1272
Vint
p1273
sVid
p1274
I92
sa(dp1275
Vattack_type
p1276
VMelee
p1277
sVname
p1278
VSlark
p1279
sVroles
p1280
(lp1281
VCarry
p1282
aVEscape
p1283
aVDisabler
p1284
aVNuker
p1285
asVprimary_attr
p1286
Vagi
p1287
sVid
p1288
I93
sa(dp1289
Vattack_type
p1290
VRanged
p1291
sVname
p1292
VMedusa
p1293
sVroles
p1294
(lp1295
VCarry
p1296
aVDisabler
p1297
aVDurable
p1298
asVprimary_attr
p1299
Vagi
p1300
sVid
p1301
I94
sa(dp1302
Vattack_type
p1303
VRanged
p1304
sVname
p1305
VTroll Warlord
p1306
sVroles
p1307
(lp1308
VCarry
p1309
aVPusher
p1310
aVDisabler
p1311
aVDurable
p1312
asVprimary_attr
p1313
Vagi
p1314
sVid
p1315
I95
sa(dp1316
Vattack_type
p1317
VMelee
p1318
sVname
p1319
VCentaur Warrunner
p1320
sVroles
p1321
(lp1322
VDurable
p1323
aVInitiator
p1324
aVDisabler
p1325
aVNuker
p1326
aVEscape
p1327
asVprimary_attr
p1328
Vstr
p1329
sVid
p1330
I96
sa(dp1331
Vattack_type
p1332
VMelee
p1333
sVname
p1334
VMagnus
p1335
sVroles
p1336
(lp1337
VInitiator
p1338
aVDisabler
p1339
aVNuker
p1340
aVEscape
p1341
asVprimary_attr
p1342
Vstr
p1343
sVid
p1344
I97
sa(dp1345
Vattack_type
p1346
VMelee
p1347
sVname
p1348
VTimbersaw
p1349
sVroles
p1350
(lp1351
VNuker
p1352
aVDurable
p1353
aVEscape
p1354
asVprimary_attr
p1355
Vstr
p1356
sVid
p1357
I98
sa(dp1358
Vattack_type
p1359
VMelee
p1360
sVname
p1361
VBristleback
p1362
sVroles
p1363
(lp1364
VCarry
p1365
aVDurable
p1366
aVInitiator
p1367
aVNuker
p1368
asVprimary_attr
p1369
Vstr
p1370
sVid
p1371
I99
sa(dp1372
Vattack_type
p1373
VMelee
p1374
sVname
p1375
VTusk
p1376
sVroles
p1377
(lp1378
VInitiator
p1379
aVDisabler
p1380
aVNuker
p1381
asVprimary_attr
p1382
Vstr
p1383
sVid
p1384
I100
sa(dp1385
Vattack_type
p1386
VRanged
p1387
sVname
p1388
VSkywrath Mage
p1389
sVroles
p1390
(lp1391
VSupport
p1392
aVNuker
p1393
aVDisabler
p1394
asVprimary_attr
p1395
Vint
p1396
sVid
p1397
I101
sa(dp1398
Vattack_type
p1399
VMelee
p1400
sVname
p1401
VAbaddon
p1402
sVroles
p1403
(lp1404
VSupport
p1405
aVCarry
p1406
aVDurable
p1407
asVprimary_attr
p1408
Vstr
p1409
sVid
p1410
I102
sa(dp1411
Vattack_type
p1412
VMelee
p1413
sVname
p1414
VElder Titan
p1415
sVroles
p1416
(lp1417
VInitiator
p1418
aVDisabler
p1419
aVNuker
p1420
aVDurable
p1421
asVprimary_attr
p1422
Vstr
p1423
sVid
p1424
I103
sa(dp1425
Vattack_type
p1426
VMelee
p1427
sVname
p1428
VLegion Commander
p1429
sVroles
p1430
(lp1431
VCarry
p1432
aVDisabler
p1433
aVInitiator
p1434
aVDurable
p1435
aVNuker
p1436
asVprimary_attr
p1437
Vstr
p1438
sVid
p1439
I104
sa(dp1440
Vattack_type
p1441
VRanged
p1442
sVname
p1443
VTechies
p1444
sVroles
p1445
(lp1446
VNuker
p1447
aVDisabler
p1448
asVprimary_attr
p1449
Vint
p1450
sVid
p1451
I105
sa(dp1452
Vattack_type
p1453
VMelee
p1454
sVname
p1455
VEmber Spirit
p1456
sVroles
p1457
(lp1458
VCarry
p1459
aVEscape
p1460
aVNuker
p1461
aVDisabler
p1462
aVInitiator
p1463
asVprimary_attr
p1464
Vagi
p1465
sVid
p1466
I106
sa(dp1467
Vattack_type
p1468
VMelee
p1469
sVname
p1470
VEarth Spirit
p1471
sVroles
p1472
(lp1473
VNuker
p1474
aVEscape
p1475
aVDisabler
p1476
aVInitiator
p1477
aVDurable
p1478
asVprimary_attr
p1479
Vstr
p1480
sVid
p1481
I107
sa(dp1482
Vattack_type
p1483
VMelee
p1484
sVname
p1485
VUnderlord
p1486
sVroles
p1487
(lp1488
VSupport
p1489
aVNuker
p1490
aVDisabler
p1491
aVDurable
p1492
aVEscape
p1493
asVprimary_attr
p1494
Vstr
p1495
sVid
p1496
I108
sa(dp1497
Vattack_type
p1498
VMelee
p1499
sVname
p1500
VTerrorblade
p1501
sVroles
p1502
(lp1503
VCarry
p1504
aVPusher
p1505
aVNuker
p1506
asVprimary_attr
p1507
Vagi
p1508
sVid
p1509
I109
sa(dp1510
Vattack_type
p1511
VRanged
p1512
sVname
p1513
VPhoenix
p1514
sVroles
p1515
(lp1516
VSupport
p1517
aVNuker
p1518
aVInitiator
p1519
aVEscape
p1520
aVDisabler
p1521
asVprimary_attr
p1522
Vstr
p1523
sVid
p1524
I110
sa(dp1525
Vattack_type
p1526
VRanged
p1527
sVname
p1528
VOracle
p1529
sVroles
p1530
(lp1531
VSupport
p1532
aVNuker
p1533
aVDisabler
p1534
aVEscape
p1535
asVprimary_attr
p1536
Vint
p1537
sVid
p1538
I111
sa(dp1539
Vattack_type
p1540
VRanged
p1541
sVname
p1542
VWinter Wyvern
p1543
sVroles
p1544
(lp1545
VSupport
p1546
aVDisabler
p1547
aVNuker
p1548
asVprimary_attr
p1549
Vint
p1550
sVid
p1551
I112
sa(dp1552
Vattack_type
p1553
VRanged
p1554
sVname
p1555
VArc Warden
p1556
sVroles
p1557
(lp1558
VCarry
p1559
aVEscape
p1560
aVNuker
p1561
asVprimary_attr
p1562
Vagi
p1563
sVid
p1564
I113
sa(dp1565
Vattack_type
p1566
VMelee
p1567
sVname
p1568
VMonkey King
p1569
sVroles
p1570
(lp1571
VCarry
p1572
aVEscape
p1573
aVDisabler
p1574
aVInitiator
p1575
asVprimary_attr
p1576
Vagi
p1577
sVid
p1578
I114
sa.